target datalayout = "e-m:e-p270:32:32-p271:32:32-p272:64:64-i64:64-i128:128-f80:128-n8:16:32:64-S128"
target triple = "x86_64-pc-linux-gnu"

%"class.base::Time" = type { %"class.base::time_internal::TimeBase" }
%"class.base::time_internal::TimeBase" = type { i64 }
%struct.timeval = type { i64, i64 }
%struct.timezone = type { i32, i32 }
%"class.logging::LogMessageVoidify" = type { i8 }
%"class.logging::ErrnoLogMessage" = type { i32, [4 x i8], %"class.logging::LogMessage" }
%"class.logging::LogMessage" = type <{ i32, [4 x i8], %"class.std::__cxx11::basic_ostringstream", i64, ptr, i32, [4 x i8] }>
%"class.std::__cxx11::basic_ostringstream" = type { %"class.std::basic_ostream.base", %"class.std::__cxx11::basic_stringbuf", %"class.std::basic_ios" }
%"class.std::basic_ostream.base" = type { ptr }
%"class.std::__cxx11::basic_stringbuf" = type { %"class.std::basic_streambuf", i32, %"class.std::__cxx11::basic_string" }
%"class.std::basic_streambuf" = type { ptr, ptr, ptr, ptr, ptr, ptr, ptr, %"class.std::locale" }
%"class.std::locale" = type { ptr }
%"class.std::__cxx11::basic_string" = type { %"struct.std::__cxx11::basic_string<char>::_Alloc_hider", i64, %union.anon }
%"struct.std::__cxx11::basic_string<char>::_Alloc_hider" = type { ptr }
%union.anon = type { i64, [8 x i8] }
%"class.std::basic_ios" = type { %"class.std::ios_base", ptr, i8, i8, ptr, ptr, ptr, ptr }
%"class.std::ios_base" = type { ptr, i64, i64, i32, i32, i32, ptr, %"struct.std::ios_base::_Words", [8 x %"struct.std::ios_base::_Words"], i32, ptr, %"class.std::locale" }
%"struct.std::ios_base::_Words" = type { ptr, i64 }

@.str = private unnamed_addr constant [121 x i8] c"generated/home/dtcxzyw/WorkSpace/Projects/compilers/llvm-opt-benchmark/bench/libquic/libquic/src/base/time/time_posix.cc\00", align 1
@.str.1 = private unnamed_addr constant [29 x i8] c"Call to gettimeofday failed.\00", align 1

; Function Attrs: inlinehint mustprogress nounwind uwtable
define linkonce_odr noundef i32 @_ZStorSt12_Ios_IostateS_(i32 noundef %0, i32 noundef %1) #8 comdat {
  %3 = alloca i32, align 4
  %4 = alloca i32, align 4
  store i32 %0, ptr %3, align 4, !tbaa !117
  store i32 %1, ptr %4, align 4, !tbaa !117
  %5 = load i32, ptr %3, align 4, !tbaa !117
  %6 = load i32, ptr %4, align 4, !tbaa !117
  %7 = or i32 %5, %6
  ret i32 %7
}

; Function Attrs: mustprogress nounwind uwtable
define available_externally noundef i32 @_ZNKSt9basic_iosIcSt11char_traitsIcEE7rdstateEv(ptr noundef nonnull align 8 dereferenceable(264) %0) #5 align 2 {
  %2 = alloca ptr, align 8
  store ptr %0, ptr %2, align 8, !tbaa !115
  %3 = load ptr, ptr %2, align 8
  %4 = getelementptr inbounds nuw %"class.std::ios_base", ptr %3, i32 0, i32 5
  %5 = load i32, ptr %4, align 8, !tbaa !119
  ret i32 %5
}

; Function Attrs: mustprogress nounwind uwtable
define linkonce_odr void @_ZN4base13time_internal8TimeBaseINS_4TimeEEC2El(ptr noundef nonnull align 8 dereferenceable(8) %0, i64 noundef %1) unnamed_addr #5 comdat align 2 {
  %3 = alloca ptr, align 8
  %4 = alloca i64, align 8
  store ptr %0, ptr %3, align 8, !tbaa !76
  store i64 %1, ptr %4, align 8, !tbaa !8
  %5 = load ptr, ptr %3, align 8
  %6 = getelementptr inbounds nuw %"class.base::time_internal::TimeBase", ptr %5, i32 0, i32 0
  %7 = load i64, ptr %4, align 8, !tbaa !8
  store i64 %7, ptr %6, align 8, !tbaa !32
  ret void
}

; Function Attrs: mustprogress nounwind uwtable
define linkonce_odr noundef i64 @_ZNSt11char_traitsIcE6lengthEPKc(ptr noundef %0) #5 comdat align 2 {
  %2 = alloca ptr, align 8
  store ptr %0, ptr %2, align 8, !tbaa !20
  %3 = load ptr, ptr %2, align 8, !tbaa !20
  %4 = call i64 @strlen(ptr noundef %3) #11
  ret i64 %4
}

; Function Attrs: mustprogress uwtable
define available_externally void @_ZNSt9basic_iosIcSt11char_traitsIcEE8setstateESt12_Ios_Iostate(ptr noundef nonnull align 8 dereferenceable(264) %0, i32 noundef %1) #0 align 2 {
  %3 = alloca ptr, align 8
  %4 = alloca i32, align 4
  store ptr %0, ptr %3, align 8, !tbaa !115
  store i32 %1, ptr %4, align 4, !tbaa !117
  %5 = load ptr, ptr %3, align 8
  %6 = call noundef i32 @_ZNKSt9basic_iosIcSt11char_traitsIcEE7rdstateEv(ptr noundef nonnull align 8 dereferenceable(264) %5)
  %7 = load i32, ptr %4, align 4, !tbaa !117
  %8 = call noundef i32 @_ZStorSt12_Ios_IostateS_(i32 noundef %6, i32 noundef %7)
  call void @_ZNSt9basic_iosIcSt11char_traitsIcEE5clearESt12_Ios_Iostate(ptr noundef nonnull align 8 dereferenceable(264) %5, i32 noundef %8)
  ret void
}

; Function Attrs: mustprogress nounwind uwtable
define linkonce_odr noundef nonnull align 8 dereferenceable(8) ptr @_ZN7logging10LogMessage6streamEv(ptr noundef nonnull align 8 dereferenceable(404) %0) #5 comdat align 2 {
  %2 = alloca ptr, align 8
  store ptr %0, ptr %2, align 8, !tbaa !74
  %3 = load ptr, ptr %2, align 8
  %4 = getelementptr inbounds nuw %"class.logging::LogMessage", ptr %3, i32 0, i32 2
  ret ptr %4
}

; Function Attrs: mustprogress nounwind uwtable
define linkonce_odr void @_ZN4base4TimeC2El(ptr noundef nonnull align 8 dereferenceable(8) %0, i64 noundef %1) unnamed_addr #5 comdat align 2 {
  %3 = alloca ptr, align 8
  %4 = alloca i64, align 8
  store ptr %0, ptr %3, align 8, !tbaa !26
  store i64 %1, ptr %4, align 8, !tbaa !8
  %5 = load ptr, ptr %3, align 8
  %6 = load i64, ptr %4, align 8, !tbaa !8
  call void @_ZN4base13time_internal8TimeBaseINS_4TimeEEC2El(ptr noundef nonnull align 8 dereferenceable(8) %5, i64 noundef %6)
  ret void
}

; Function Attrs: mustprogress uwtable
define linkonce_odr void @_ZN4base4TimeC2Ev(ptr noundef nonnull align 8 dereferenceable(8) %0) unnamed_addr #0 comdat align 2 {
  %2 = alloca ptr, align 8
  store ptr %0, ptr %2, align 8, !tbaa !26
  %3 = load ptr, ptr %2, align 8
  call void @_ZN4base13time_internal8TimeBaseINS_4TimeEEC2El(ptr noundef nonnull align 8 dereferenceable(8) %3, i64 noundef 0)
  ret void
}

; Function Attrs: mustprogress nounwind uwtable
define linkonce_odr void @_ZN7logging17LogMessageVoidifyanERSo(ptr noundef nonnull align 1 dereferenceable(1) %0, ptr noundef nonnull align 8 dereferenceable(8) %1) #5 comdat align 2 {
  %3 = alloca ptr, align 8
  %4 = alloca ptr, align 8
  store ptr %0, ptr %3, align 8, !tbaa !16
  store ptr %1, ptr %4, align 8, !tbaa !18
  ret void
}

; Function Attrs: inlinehint mustprogress uwtable
define available_externally noundef nonnull align 8 dereferenceable(8) ptr @_ZStlsISt11char_traitsIcEERSt13basic_ostreamIcT_ES5_PKc(ptr noundef nonnull align 8 dereferenceable(8) %0, ptr noundef %1) #6 {
  %3 = alloca ptr, align 8
  %4 = alloca ptr, align 8
  store ptr %0, ptr %3, align 8, !tbaa !18
  store ptr %1, ptr %4, align 8, !tbaa !20
  %5 = load ptr, ptr %4, align 8, !tbaa !20
  %6 = icmp ne ptr %5, null
  br i1 %6, label %13, label %7

7:                                                ; preds = %2
  %8 = load ptr, ptr %3, align 8, !tbaa !18
  %9 = load ptr, ptr %8, align 8, !tbaa !22
  %10 = getelementptr i8, ptr %9, i64 -24
  %11 = load i64, ptr %10, align 8
  %12 = getelementptr inbounds i8, ptr %8, i64 %11
  call void @_ZNSt9basic_iosIcSt11char_traitsIcEE8setstateESt12_Ios_Iostate(ptr noundef nonnull align 8 dereferenceable(264) %12, i32 noundef 1)
  br label %19

13:                                               ; preds = %2
  %14 = load ptr, ptr %3, align 8, !tbaa !18
  %15 = load ptr, ptr %4, align 8, !tbaa !20
  %16 = load ptr, ptr %4, align 8, !tbaa !20
  %17 = call noundef i64 @_ZNSt11char_traitsIcE6lengthEPKc(ptr noundef %16)
  %18 = call noundef nonnull align 8 dereferenceable(8) ptr @_ZSt16__ostream_insertIcSt11char_traitsIcEERSt13basic_ostreamIT_T0_ES6_PKS3_l(ptr noundef nonnull align 8 dereferenceable(8) %14, ptr noundef %15, i64 noundef %17)
  br label %19

19:                                               ; preds = %13, %7
  %20 = load ptr, ptr %3, align 8, !tbaa !18
  ret ptr %20
}

; Function Attrs: mustprogress uwtable
define linkonce_odr noundef nonnull align 8 dereferenceable(8) ptr @_ZN7logging15ErrnoLogMessage6streamEv(ptr noundef nonnull align 8 dereferenceable(416) %0) #0 comdat align 2 {
  %2 = alloca ptr, align 8
  store ptr %0, ptr %2, align 8, !tbaa !24
  %3 = load ptr, ptr %2, align 8
  %4 = getelementptr inbounds nuw %"class.logging::ErrnoLogMessage", ptr %3, i32 0, i32 2
  %5 = call noundef nonnull align 8 dereferenceable(8) ptr @_ZN7logging10LogMessage6streamEv(ptr noundef nonnull align 8 dereferenceable(404) %4)
  ret ptr %5
}

; Function Attrs: mustprogress nounwind uwtable
define linkonce_odr void @_ZN7logging17LogMessageVoidifyC2Ev(ptr noundef nonnull align 1 dereferenceable(1) %0) unnamed_addr #5 comdat align 2 {
  %2 = alloca ptr, align 8
  store ptr %0, ptr %2, align 8, !tbaa !16
  ret void
}

; Function Attrs: mustprogress uwtable
define i64 @_ZN4base4Time3NowEv() #0 align 2 personality ptr @__gxx_personality_v0 {
  %1 = alloca %"class.base::Time", align 8
  %2 = alloca %struct.timeval, align 8
  %3 = alloca %struct.timezone, align 4
  %4 = alloca %"class.logging::LogMessageVoidify", align 1
  %5 = alloca %"class.logging::ErrnoLogMessage", align 8
  %6 = alloca i1, align 1
  %7 = alloca i1, align 1
  %8 = alloca ptr, align 8
  %9 = alloca i32, align 4
  %10 = alloca i32, align 4
  call void @llvm.lifetime.start.p0(i64 16, ptr %2) #11
  call void @llvm.lifetime.start.p0(i64 8, ptr %3) #11
  call void @llvm.memset.p0.i64(ptr align 4 %3, i8 0, i64 8, i1 false)
  %11 = call i32 @gettimeofday(ptr noundef %2, ptr noundef %3) #11
  %12 = icmp ne i32 %11, 0
  br i1 %12, label %13, label %40

13:                                               ; preds = %0
  %14 = call noundef zeroext i1 @_ZN7logging22ShouldCreateLogMessageEi(i32 noundef 2)
  call void @llvm.lifetime.start.p0(i64 1, ptr %4) #11
  store i1 false, ptr %6, align 1
  store i1 false, ptr %7, align 1
  br i1 %14, label %16, label %15

15:                                               ; preds = %13
  br label %23

16:                                               ; preds = %13
  call void @_ZN7logging17LogMessageVoidifyC2Ev(ptr noundef nonnull align 1 dereferenceable(1) %4)
  call void @llvm.lifetime.start.p0(i64 416, ptr %5) #11
  store i1 true, ptr %6, align 1
  %17 = call noundef i32 @_ZN7logging22GetLastSystemErrorCodeEv()
  call void @_ZN7logging15ErrnoLogMessageC1EPKciii(ptr noundef nonnull align 8 dereferenceable(416) %5, ptr noundef @.str, i32 noundef 156, i32 noundef 2, i32 noundef %17)
  store i1 true, ptr %7, align 1
  %18 = invoke noundef nonnull align 8 dereferenceable(8) ptr @_ZN7logging15ErrnoLogMessage6streamEv(ptr noundef nonnull align 8 dereferenceable(416) %5)
          to label %19 unwind label %30

19:                                               ; preds = %16
  %20 = invoke noundef nonnull align 8 dereferenceable(8) ptr @_ZStlsISt11char_traitsIcEERSt13basic_ostreamIcT_ES5_PKc(ptr noundef nonnull align 8 dereferenceable(8) %18, ptr noundef @.str.1)
          to label %21 unwind label %30

21:                                               ; preds = %19
  invoke void @_ZN7logging17LogMessageVoidifyanERSo(ptr noundef nonnull align 1 dereferenceable(1) %4, ptr noundef nonnull align 8 dereferenceable(8) %20)
          to label %22 unwind label %30

22:                                               ; preds = %21
  br label %23

23:                                               ; preds = %22, %15
  %24 = load i1, ptr %7, align 1
  br i1 %24, label %25, label %26

25:                                               ; preds = %23
  call void @_ZN7logging15ErrnoLogMessageD1Ev(ptr noundef nonnull align 8 dereferenceable(416) %5) #11
  br label %26

26:                                               ; preds = %25, %23
  %27 = load i1, ptr %6, align 1
  br i1 %27, label %28, label %29

28:                                               ; preds = %26
  call void @llvm.lifetime.end.p0(i64 416, ptr %5) #11
  br label %29

29:                                               ; preds = %28, %26
  call void @llvm.lifetime.end.p0(i64 1, ptr %4) #11
  call void @_ZN4base4TimeC2Ev(ptr noundef nonnull align 8 dereferenceable(8) %1)
  store i32 1, ptr %10, align 4
  br label %48

30:                                               ; preds = %21, %19, %16
  %31 = landingpad { ptr, i32 }
          cleanup
  %32 = extractvalue { ptr, i32 } %31, 0
  store ptr %32, ptr %8, align 8
  %33 = extractvalue { ptr, i32 } %31, 1
  store i32 %33, ptr %9, align 4
  %34 = load i1, ptr %7, align 1
  br i1 %34, label %35, label %36

35:                                               ; preds = %30
  call void @_ZN7logging15ErrnoLogMessageD1Ev(ptr noundef nonnull align 8 dereferenceable(416) %5) #11
  br label %36

36:                                               ; preds = %35, %30
  %37 = load i1, ptr %6, align 1
  br i1 %37, label %38, label %39

38:                                               ; preds = %36
  call void @llvm.lifetime.end.p0(i64 416, ptr %5) #11
  br label %39

39:                                               ; preds = %38, %36
  call void @llvm.lifetime.end.p0(i64 1, ptr %4) #11
  call void @llvm.lifetime.end.p0(i64 8, ptr %3) #11
  call void @llvm.lifetime.end.p0(i64 16, ptr %2) #11
  br label %52

40:                                               ; preds = %0
  %41 = getelementptr inbounds nuw %struct.timeval, ptr %2, i32 0, i32 0
  %42 = load i64, ptr %41, align 8, !tbaa !13
  %43 = mul nsw i64 %42, 1000000
  %44 = getelementptr inbounds nuw %struct.timeval, ptr %2, i32 0, i32 1
  %45 = load i64, ptr %44, align 8, !tbaa !15
  %46 = add nsw i64 %43, %45
  %47 = add nsw i64 %46, 11644473600000000
  call void @_ZN4base4TimeC2El(ptr noundef nonnull align 8 dereferenceable(8) %1, i64 noundef %47)
  store i32 1, ptr %10, align 4
  br label %48

48:                                               ; preds = %40, %29
  call void @llvm.lifetime.end.p0(i64 8, ptr %3) #11
  call void @llvm.lifetime.end.p0(i64 16, ptr %2) #11
  %49 = getelementptr inbounds nuw %"class.base::Time", ptr %1, i32 0, i32 0
  %50 = getelementptr inbounds nuw %"class.base::time_internal::TimeBase", ptr %49, i32 0, i32 0
  %51 = load i64, ptr %50, align 8
  ret i64 %51

52:                                               ; preds = %39
  %53 = load ptr, ptr %8, align 8
  %54 = load i32, ptr %9, align 4
  %55 = insertvalue { ptr, i32 } poison, ptr %53, 0
  %56 = insertvalue { ptr, i32 } %55, i32 %54, 1
  resume { ptr, i32 } %56
}