; Function Attrs: mustprogress uwtable
define range(i64 -9211727563254775808, -9223372036854775808) i64 @_ZN4base4Time3NowEv() local_unnamed_addr #0 align 2 personality ptr @__gxx_personality_v0 {
  %1 = alloca %struct.timeval, align 8
  %2 = alloca %struct.timezone, align 8
  %3 = alloca %"class.logging::ErrnoLogMessage", align 8
  call void @llvm.lifetime.start.p0(i64 16, ptr nonnull %1) #13
  call void @llvm.lifetime.start.p0(i64 8, ptr nonnull %2) #13
  store i64 0, ptr %2, align 8
  %4 = call i32 @gettimeofday(ptr noundef nonnull %1, ptr noundef nonnull %2) #13
  %.not = icmp eq i32 %4, 0
  br i1 %.not, label %13, label %5

5:                                                ; preds = %0
  %6 = tail call noundef zeroext i1 @_ZN7logging22ShouldCreateLogMessageEi(i32 noundef 2)
  br i1 %6, label %7, label %.critedge6

7:                                                ; preds = %5
  call void @llvm.lifetime.start.p0(i64 416, ptr nonnull %3) #13
  %8 = tail call noundef i32 @_ZN7logging22GetLastSystemErrorCodeEv()
  call void @_ZN7logging15ErrnoLogMessageC1EPKciii(ptr noundef nonnull align 8 dereferenceable(416) %3, ptr noundef nonnull @.str, i32 noundef 156, i32 noundef 2, i32 noundef %8)
  %9 = getelementptr inbounds nuw i8, ptr %3, i64 16
  %10 = invoke noundef nonnull align 8 dereferenceable(8) ptr @_ZSt16__ostream_insertIcSt11char_traitsIcEERSt13basic_ostreamIT_T0_ES6_PKS3_l(ptr noundef nonnull align 8 dereferenceable(8) %9, ptr noundef nonnull @.str.1, i64 noundef 28)
          to label %.critedge unwind label %11

.critedge:                                        ; preds = %7
  call void @_ZN7logging15ErrnoLogMessageD1Ev(ptr noundef nonnull align 8 dereferenceable(416) %3) #13
  call void @llvm.lifetime.end.p0(i64 416, ptr nonnull %3) #13
  br label %.critedge6

11:                                               ; preds = %7
  %12 = landingpad { ptr, i32 }
          cleanup
  call void @_ZN7logging15ErrnoLogMessageD1Ev(ptr noundef nonnull align 8 dereferenceable(416) %3) #13
  call void @llvm.lifetime.end.p0(i64 416, ptr nonnull %3) #13
  call void @llvm.lifetime.end.p0(i64 8, ptr nonnull %2) #13
  call void @llvm.lifetime.end.p0(i64 16, ptr nonnull %1) #13
  resume { ptr, i32 } %12

13:                                               ; preds = %0
  %14 = load i64, ptr %1, align 8, !tbaa !3
  %15 = mul nsw i64 %14, 1000000
  %16 = getelementptr inbounds nuw i8, ptr %1, i64 8
  %17 = load i64, ptr %16, align 8, !tbaa !8
  %18 = add i64 %17, 11644473600000000
  %19 = add i64 %18, %15
  br label %.critedge6

.critedge6:                                       ; preds = %.critedge, %5, %13
  %.sroa.07.0 = phi i64 [ %19, %13 ], [ 0, %5 ], [ 0, %.critedge ]
  call void @llvm.lifetime.end.p0(i64 8, ptr nonnull %2) #13
  call void @llvm.lifetime.end.p0(i64 16, ptr nonnull %1) #13
  ret i64 %.sroa.07.0
}